target datalayout = "e-m:e-p270:32:32-p271:32:32-p272:64:64-i64:64-i128:128-f80:128-n8:16:32:64-S128"
target triple = "x86_64-pc-linux-gnu"

%"class.open3d::utility::ProgressBar" = type <{ ptr, i64, i64, i64, %"class.std::__cxx11::basic_string", i64, i8, [7 x i8] }>
%"class.std::__cxx11::basic_string" = type { %"struct.std::__cxx11::basic_string<char>::_Alloc_hider", i64, %union.anon }
%"struct.std::__cxx11::basic_string<char>::_Alloc_hider" = type { ptr }
%union.anon = type { i64, [8 x i8] }

; Function Attrs: mustprogress ssp uwtable
define available_externally noundef nonnull align 8 dereferenceable(32) ptr @_ZNSt7__cxx1112basic_stringIcSt11char_traitsIcESaIcEE6assignERKS4_(ptr noundef nonnull align 8 dereferenceable(32) %0, ptr noundef nonnull align 8 dereferenceable(32) %1) #0 align 2 {
  %3 = alloca ptr, align 8
  %4 = alloca ptr, align 8
  store ptr %0, ptr %3, align 8, !tbaa !23
  store ptr %1, ptr %4, align 8, !tbaa !23
  %5 = load ptr, ptr %3, align 8
  %6 = load ptr, ptr %4, align 8, !tbaa !23
  call void @_ZNSt7__cxx1112basic_stringIcSt11char_traitsIcESaIcEE9_M_assignERKS4_(ptr noundef nonnull align 8 dereferenceable(32) %5, ptr noundef nonnull align 8 dereferenceable(32) %6)
  ret ptr %5
}

; Function Attrs: mustprogress ssp uwtable
define available_externally noundef nonnull align 8 dereferenceable(32) ptr @_ZNSt7__cxx1112basic_stringIcSt11char_traitsIcESaIcEEaSERKS4_(ptr noundef nonnull align 8 dereferenceable(32) %0, ptr noundef nonnull align 8 dereferenceable(32) %1) #0 align 2 {
  %3 = alloca ptr, align 8
  %4 = alloca ptr, align 8
  store ptr %0, ptr %3, align 8, !tbaa !23
  store ptr %1, ptr %4, align 8, !tbaa !23
  %5 = load ptr, ptr %3, align 8
  %6 = load ptr, ptr %4, align 8, !tbaa !23
  %7 = call noundef nonnull align 8 dereferenceable(32) ptr @_ZNSt7__cxx1112basic_stringIcSt11char_traitsIcESaIcEE6assignERKS4_(ptr noundef nonnull align 8 dereferenceable(32) %5, ptr noundef nonnull align 8 dereferenceable(32) %6)
  ret ptr %7
}

; Function Attrs: mustprogress ssp uwtable
define void @_ZN6open3d7utility11ProgressBar5ResetEmRKNSt7__cxx1112basic_stringIcSt11char_traitsIcESaIcEEEb(ptr noundef nonnull align 8 dereferenceable(73) %0, i64 noundef %1, ptr noundef nonnull align 8 dereferenceable(32) %2, i1 noundef zeroext %3) #0 align 2 {
  %5 = alloca ptr, align 8
  %6 = alloca i64, align 8
  %7 = alloca ptr, align 8
  %8 = alloca i8, align 1
  store ptr %0, ptr %5, align 8, !tbaa !4
  store i64 %1, ptr %6, align 8, !tbaa !22
  store ptr %2, ptr %7, align 8, !tbaa !23
  %9 = zext i1 %3 to i8
  store i8 %9, ptr %8, align 1, !tbaa !25
  %10 = load ptr, ptr %5, align 8
  %11 = load i64, ptr %6, align 8, !tbaa !22
  %12 = getelementptr inbounds nuw %"class.open3d::utility::ProgressBar", ptr %10, i32 0, i32 2
  store i64 %11, ptr %12, align 8, !tbaa !29
  %13 = getelementptr inbounds nuw %"class.open3d::utility::ProgressBar", ptr %10, i32 0, i32 3
  store i64 -1, ptr %13, align 8, !tbaa !9
  %14 = load ptr, ptr %7, align 8, !tbaa !23
  %15 = getelementptr inbounds nuw %"class.open3d::utility::ProgressBar", ptr %10, i32 0, i32 4
  %16 = call noundef nonnull align 8 dereferenceable(32) ptr @_ZNSt7__cxx1112basic_stringIcSt11char_traitsIcESaIcEEaSERKS4_(ptr noundef nonnull align 8 dereferenceable(32) %15, ptr noundef nonnull align 8 dereferenceable(32) %14)
  %17 = getelementptr inbounds nuw %"class.open3d::utility::ProgressBar", ptr %10, i32 0, i32 5
  store i64 0, ptr %17, align 8, !tbaa !30
  %18 = load i8, ptr %8, align 1, !tbaa !25, !range !27, !noundef !28
  %19 = trunc i8 %18 to i1
  %20 = getelementptr inbounds nuw %"class.open3d::utility::ProgressBar", ptr %10, i32 0, i32 6
  %21 = zext i1 %19 to i8
  store i8 %21, ptr %20, align 8, !tbaa !31
  %22 = load ptr, ptr %10, align 8, !tbaa !20
  %23 = getelementptr inbounds ptr, ptr %22, i64 0
  %24 = load ptr, ptr %23, align 8
  %25 = call noundef nonnull align 8 dereferenceable(73) ptr %24(ptr noundef nonnull align 8 dereferenceable(73) %10)
  ret void
}