; Function Attrs: mustprogress ssp uwtable
define void @_ZN6open3d7utility11ProgressBar5ResetEmRKNSt7__cxx1112basic_stringIcSt11char_traitsIcESaIcEEEb(ptr noundef nonnull align 8 dereferenceable(73) initializes((16, 32)) %0, i64 noundef %1, ptr noundef nonnull align 8 dereferenceable(32) %2, i1 noundef zeroext %3) local_unnamed_addr #0 align 2 {
  %5 = zext i1 %3 to i8
  %6 = getelementptr inbounds nuw i8, ptr %0, i64 16
  store i64 %1, ptr %6, align 8, !tbaa !21
  %7 = getelementptr inbounds nuw i8, ptr %0, i64 24
  store i64 -1, ptr %7, align 8, !tbaa !4
  %8 = getelementptr inbounds nuw i8, ptr %0, i64 32
  tail call void @_ZNSt7__cxx1112basic_stringIcSt11char_traitsIcESaIcEE9_M_assignERKS4_(ptr noundef nonnull align 8 dereferenceable(32) %8, ptr noundef nonnull align 8 dereferenceable(32) %2)
  %9 = getelementptr inbounds nuw i8, ptr %0, i64 64
  store i64 0, ptr %9, align 8, !tbaa !22
  %10 = getelementptr inbounds nuw i8, ptr %0, i64 72
  store i8 %5, ptr %10, align 8, !tbaa !23
  %11 = load ptr, ptr %0, align 8, !tbaa !14
  %12 = load ptr, ptr %11, align 8
  %13 = tail call noundef nonnull align 8 dereferenceable(73) ptr %12(ptr noundef nonnull align 8 dereferenceable(73) %0)
  ret void
}